; Function Attrs: mustprogress uwtable
define void @_ZN8facebook5velox5cache7SsdFile11logEvictionERKSt6vectorIiSaIiEE(ptr noundef nonnull align 8 dereferenceable(381) %this, ptr nocapture noundef nonnull readonly align 8 dereferenceable(24) %regions) local_unnamed_addr #4 align 2 personality ptr @__gxx_personality_v0 {
entry:
  %ref.tmp = alloca %"class.std::__cxx11::basic_string", align 8
  %ref.tmp9 = alloca %"class.std::allocator", align 1
  %checkpointIntervalBytes_ = getelementptr inbounds i8, ptr %this, i64 352
  %0 = load i64, ptr %checkpointIntervalBytes_, align 8
  %cmp = icmp sgt i64 %0, 0
  br i1 %cmp, label %if.then, label %if.end12

if.then:                                          ; preds = %entry
  %evictLogFd_ = getelementptr inbounds i8, ptr %this, i64 376
  %1 = load i32, ptr %evictLogFd_, align 8
  %2 = load ptr, ptr %regions, align 8
  %_M_finish.i = getelementptr inbounds i8, ptr %regions, i64 8
  %3 = load ptr, ptr %_M_finish.i, align 8
  %sub.ptr.lhs.cast.i = ptrtoint ptr %3 to i64
  %sub.ptr.rhs.cast.i = ptrtoint ptr %2 to i64
  %sub.ptr.sub.i = sub i64 %sub.ptr.lhs.cast.i, %sub.ptr.rhs.cast.i
  %call3 = tail call i64 @write(i32 noundef %1, ptr noundef %2, i64 noundef %sub.ptr.sub.i)
  %conv = trunc i64 %call3 to i32
  %sext = shl i64 %call3, 32
  %conv4 = ashr exact i64 %sext, 32
  %4 = load ptr, ptr %_M_finish.i, align 8
  %5 = load ptr, ptr %regions, align 8
  %sub.ptr.lhs.cast.i6 = ptrtoint ptr %4 to i64
  %sub.ptr.rhs.cast.i7 = ptrtoint ptr %5 to i64
  %sub.ptr.sub.i8 = sub i64 %sub.ptr.lhs.cast.i6, %sub.ptr.rhs.cast.i7
  %cmp7.not = icmp eq i64 %conv4, %sub.ptr.sub.i8
  br i1 %cmp7.not, label %if.end12, label %if.then8

if.then8:                                         ; preds = %if.then
  call void @_ZNSaIcEC1Ev(ptr noundef nonnull align 1 dereferenceable(1) %ref.tmp9) #34
  %call.i10 = invoke noundef ptr @_ZNSt7__cxx1112basic_stringIcSt11char_traitsIcESaIcEE13_M_local_dataEv(ptr noundef nonnull align 8 dereferenceable(32) %ref.tmp)
          to label %call.i.noexc unwind label %lpad

call.i.noexc:                                     ; preds = %if.then8
  invoke void @_ZNSt7__cxx1112basic_stringIcSt11char_traitsIcESaIcEE12_Alloc_hiderC1EPcRKS3_(ptr noundef nonnull align 8 dereferenceable(8) %ref.tmp, ptr noundef %call.i10, ptr noundef nonnull align 1 dereferenceable(1) %ref.tmp9)
          to label %.noexc unwind label %lpad

.noexc:                                           ; preds = %call.i.noexc
  invoke void @_ZNSt7__cxx1112basic_stringIcSt11char_traitsIcESaIcEE12_M_constructIPKcEEvT_S8_St20forward_iterator_tag(ptr noundef nonnull align 8 dereferenceable(32) %ref.tmp, ptr noundef nonnull @.str.19, ptr noundef nonnull getelementptr inbounds ([23 x i8], ptr @.str.19, i64 0, i64 22))
          to label %invoke.cont unwind label %lpad.i

lpad.i:                                           ; preds = %.noexc
  %6 = landingpad { ptr, i32 }
          cleanup
  call void @_ZNSaIcED2Ev(ptr noundef nonnull align 1 dereferenceable(1) %ref.tmp) #34
  br label %ehcleanup

invoke.cont:                                      ; preds = %.noexc
  invoke void @_ZN8facebook5velox5cache7SsdFile15checkpointErrorEiRKNSt7__cxx1112basic_stringIcSt11char_traitsIcESaIcEEE(ptr noundef nonnull align 8 dereferenceable(381) %this, i32 noundef %conv, ptr noundef nonnull align 8 dereferenceable(32) %ref.tmp)
          to label %invoke.cont11 unwind label %lpad10

invoke.cont11:                                    ; preds = %invoke.cont
  call void @_ZNSt7__cxx1112basic_stringIcSt11char_traitsIcESaIcEED1Ev(ptr noundef nonnull align 8 dereferenceable(32) %ref.tmp) #34
  call void @_ZNSaIcED1Ev(ptr noundef nonnull align 1 dereferenceable(1) %ref.tmp9) #34
  br label %if.end12

lpad:                                             ; preds = %call.i.noexc, %if.then8
  %7 = landingpad { ptr, i32 }
          cleanup
  br label %ehcleanup

lpad10:                                           ; preds = %invoke.cont
  %8 = landingpad { ptr, i32 }
          cleanup
  call void @_ZNSt7__cxx1112basic_stringIcSt11char_traitsIcESaIcEED1Ev(ptr noundef nonnull align 8 dereferenceable(32) %ref.tmp) #34
  br label %ehcleanup

ehcleanup:                                        ; preds = %lpad, %lpad.i, %lpad10
  %.pn = phi { ptr, i32 } [ %8, %lpad10 ], [ %7, %lpad ], [ %6, %lpad.i ]
  call void @_ZNSaIcED1Ev(ptr noundef nonnull align 1 dereferenceable(1) %ref.tmp9) #34
  resume { ptr, i32 } %.pn

if.end12:                                         ; preds = %if.then, %invoke.cont11, %entry
  ret void
}